; Function Attrs: null_pointer_is_valid sspstrong uwtable
define internal noundef i32 @netdfs_dissect_element_dfs_Info_info0_(ptr noundef %0, i32 noundef returned %1, ptr readnone captures(none) %2, ptr noundef %3, ptr readnone captures(none) %4, ptr readnone captures(none) %5) #0 {
  %.not.i = icmp eq ptr %3, null
  br i1 %.not.i, label %netdfs_dissect_struct_dfs_Info0.exit, label %7

7:                                                ; preds = %6
  %8 = load i32, ptr @hf_netdfs_dfs_Info_info0, align 4
  %9 = tail call ptr @proto_tree_add_item(ptr noundef nonnull %3, i32 noundef %8, ptr noundef %0, i32 noundef %1, i32 noundef -1, i32 noundef 0)
  br label %netdfs_dissect_struct_dfs_Info0.exit

netdfs_dissect_struct_dfs_Info0.exit:             ; preds = %6, %7
  %.0.i = phi ptr [ %9, %7 ], [ null, %6 ]
  tail call void @proto_item_set_len(ptr noundef %.0.i, i32 noundef 0)
  ret i32 %1
}